; Function Attrs: mustprogress nounwind uwtable
define internal fastcc { i32, i64 } @_ZN6hermes2vmL32interpretFunctionWithRandomStackERNS0_7RuntimeEPNS0_9CodeBlockE(ptr noundef nonnull align 8 dereferenceable(9832) %runtime, ptr noundef %globalCode) unnamed_addr #0 {
entry:
  %ref.tmp.i = alloca %"class.std::__cxx11::basic_string", align 8
  %ref.tmp2.i = alloca %"class.std::allocator", align 1
  %ref.tmp = alloca %"class.std::random_device", align 8
  call void @llvm.lifetime.start.p0(i64 32, ptr nonnull %ref.tmp.i)
  call void @llvm.lifetime.start.p0(i64 1, ptr nonnull %ref.tmp2.i)
  call void @_ZNSaIcEC1Ev(ptr noundef nonnull align 1 dereferenceable(1) %ref.tmp2.i) #26
  %call.i.i = call noundef ptr @_ZNSt7__cxx1112basic_stringIcSt11char_traitsIcESaIcEE13_M_local_dataEv(ptr noundef nonnull align 8 dereferenceable(32) %ref.tmp.i) #26
  call void @_ZNSt7__cxx1112basic_stringIcSt11char_traitsIcESaIcEE12_Alloc_hiderC1EPcRKS3_(ptr noundef nonnull align 8 dereferenceable(8) %ref.tmp.i, ptr noundef %call.i.i, ptr noundef nonnull align 1 dereferenceable(1) %ref.tmp2.i) #26
  %call.i.i1 = call noundef ptr @_ZNSt7__cxx1112basic_stringIcSt11char_traitsIcESaIcEE13_M_local_dataEv(ptr noundef nonnull align 8 dereferenceable(32) %ref.tmp.i) #26
  %call4.i = call noundef ptr @_ZNKSt7__cxx1112basic_stringIcSt11char_traitsIcESaIcEE7_M_dataEv(ptr noundef nonnull align 8 dereferenceable(32) %ref.tmp.i) #26
  call void @_ZNSt7__cxx1112basic_stringIcSt11char_traitsIcESaIcEE13_S_copy_charsEPcPKcS7_(ptr noundef %call4.i, ptr noundef nonnull @.str.171, ptr noundef nonnull getelementptr inbounds ([8 x i8], ptr @.str.171, i64 0, i64 7)) #26
  call void @_ZNSt7__cxx1112basic_stringIcSt11char_traitsIcESaIcEE13_M_set_lengthEm(ptr noundef nonnull align 8 dereferenceable(32) %ref.tmp.i, i64 noundef 7) #26
  call void @_ZNSt13random_device7_M_initERKNSt7__cxx1112basic_stringIcSt11char_traitsIcESaIcEEE(ptr noundef nonnull align 8 dereferenceable(5000) %ref.tmp, ptr noundef nonnull align 8 dereferenceable(32) %ref.tmp.i) #26
  call void @_ZNSt7__cxx1112basic_stringIcSt11char_traitsIcESaIcEED1Ev(ptr noundef nonnull align 8 dereferenceable(32) %ref.tmp.i) #26
  call void @_ZNSaIcED1Ev(ptr noundef nonnull align 1 dereferenceable(1) %ref.tmp2.i) #26
  call void @llvm.lifetime.end.p0(i64 32, ptr nonnull %ref.tmp.i)
  call void @llvm.lifetime.end.p0(i64 1, ptr nonnull %ref.tmp2.i)
  %call.i = call noundef i32 @_ZNSt13random_device9_M_getvalEv(ptr noundef nonnull align 8 dereferenceable(5000) %ref.tmp) #26
  %conv = zext i32 %call.i to i64
  %call1 = call noundef i64 @_ZN6hermes8oscompat9page_sizeEv() #26
  %rem = urem i64 %conv, %call1
  call void @_ZNSt13random_device7_M_finiEv(ptr noundef nonnull align 8 dereferenceable(5000) %ref.tmp) #26
  %0 = alloca i8, i64 %rem, align 16
  store volatile ptr %0, ptr @_ZZN6hermes2vmL32interpretFunctionWithRandomStackERNS0_7RuntimeEPNS0_9CodeBlockEE5dummy, align 8
  %1 = load volatile ptr, ptr @_ZZN6hermes2vmL32interpretFunctionWithRandomStackERNS0_7RuntimeEPNS0_9CodeBlockEE5dummy, align 8
  %call4 = call { i32, i64 } @_ZN6hermes2vm7Runtime17interpretFunctionEPNS0_9CodeBlockE(ptr noundef nonnull align 8 dereferenceable(9832) %runtime, ptr noundef %globalCode) #26
  ret { i32, i64 } %call4
}